; ModuleID = '49/908.c'
source_filename = "49/908.c"
target datalayout = "e-m:e-p270:32:32-p271:32:32-p272:64:64-i64:64-f80:128-n8:16:32:64-S128"
target triple = "x86_64-pc-linux-gnu"

@.str = private unnamed_addr constant [3 x i8] c"%s\00", align 1
@.str.1 = private unnamed_addr constant [3 x i8] c"%c\00", align 1
@.str.2 = private unnamed_addr constant [2 x i8] c"\0A\00", align 1

; Function Attrs: noinline nounwind uwtable
define dso_local void @main() #0 {
  %1 = alloca [501 x i8], align 16
  %2 = alloca i32, align 4
  %3 = alloca i32, align 4
  %4 = alloca i32, align 4
  %5 = alloca i32, align 4
  %6 = alloca i32, align 4
  %7 = getelementptr inbounds [501 x i8], [501 x i8]* %1, i64 0, i64 0
  %8 = call i32 (i8*, ...) @__isoc99_scanf(i8* getelementptr inbounds ([3 x i8], [3 x i8]* @.str, i64 0, i64 0), i8* %7)
  %9 = getelementptr inbounds [501 x i8], [501 x i8]* %1, i64 0, i64 0
  %10 = call i64 @strlen(i8* %9) #3
  %11 = trunc i64 %10 to i32
  store i32 %11, i32* %5, align 4
  store i32 2, i32* %4, align 4
  br label %12

12:                                               ; preds = %88, %0
  %13 = load i32, i32* %4, align 4
  %14 = load i32, i32* %5, align 4
  %15 = icmp sle i32 %13, %14
  br i1 %15, label %16, label %91

16:                                               ; preds = %12
  store i32 0, i32* %2, align 4
  br label %17

17:                                               ; preds = %84, %16
  %18 = load i32, i32* %2, align 4
  %19 = load i32, i32* %5, align 4
  %20 = load i32, i32* %4, align 4
  %21 = sub nsw i32 %19, %20
  %22 = add nsw i32 %21, 1
  %23 = icmp sle i32 %18, %22
  br i1 %23, label %24, label %87

24:                                               ; preds = %17
  store i32 0, i32* %6, align 4
  %25 = load i32, i32* %2, align 4
  store i32 %25, i32* %3, align 4
  br label %26

26:                                               ; preds = %55, %24
  %27 = load i32, i32* %3, align 4
  %28 = load i32, i32* %2, align 4
  %29 = mul nsw i32 2, %28
  %30 = sub nsw i32 %29, 1
  %31 = load i32, i32* %4, align 4
  %32 = add nsw i32 %30, %31
  %33 = sdiv i32 %32, 2
  %34 = icmp sle i32 %27, %33
  br i1 %34, label %35, label %58

35:                                               ; preds = %26
  %36 = load i32, i32* %3, align 4
  %37 = sext i32 %36 to i64
  %38 = getelementptr inbounds [501 x i8], [501 x i8]* %1, i64 0, i64 %37
  %39 = load i8, i8* %38, align 1
  %40 = sext i8 %39 to i32
  %41 = load i32, i32* %2, align 4
  %42 = mul nsw i32 2, %41
  %43 = sub nsw i32 %42, 1
  %44 = load i32, i32* %4, align 4
  %45 = add nsw i32 %43, %44
  %46 = load i32, i32* %3, align 4
  %47 = sub nsw i32 %45, %46
  %48 = sext i32 %47 to i64
  %49 = getelementptr inbounds [501 x i8], [501 x i8]* %1, i64 0, i64 %48
  %50 = load i8, i8* %49, align 1
  %51 = sext i8 %50 to i32
  %52 = icmp ne i32 %40, %51
  br i1 %52, label %53, label %54

53:                                               ; preds = %35
  store i32 1, i32* %6, align 4
  br label %58

54:                                               ; preds = %35
  br label %55

55:                                               ; preds = %54
  %56 = load i32, i32* %3, align 4
  %57 = add nsw i32 %56, 1
  store i32 %57, i32* %3, align 4
  br label %26

58:                                               ; preds = %53, %26
  %59 = load i32, i32* %6, align 4
  %60 = icmp eq i32 %59, 1
  br i1 %60, label %61, label %62

61:                                               ; preds = %58
  br label %84

62:                                               ; preds = %58
  %63 = load i32, i32* %2, align 4
  store i32 %63, i32* %3, align 4
  br label %64

64:                                               ; preds = %78, %62
  %65 = load i32, i32* %3, align 4
  %66 = load i32, i32* %2, align 4
  %67 = sub nsw i32 %66, 1
  %68 = load i32, i32* %4, align 4
  %69 = add nsw i32 %67, %68
  %70 = icmp sle i32 %65, %69
  br i1 %70, label %71, label %81

71:                                               ; preds = %64
  %72 = load i32, i32* %3, align 4
  %73 = sext i32 %72 to i64
  %74 = getelementptr inbounds [501 x i8], [501 x i8]* %1, i64 0, i64 %73
  %75 = load i8, i8* %74, align 1
  %76 = sext i8 %75 to i32
  %77 = call i32 (i8*, ...) @printf(i8* getelementptr inbounds ([3 x i8], [3 x i8]* @.str.1, i64 0, i64 0), i32 %76)
  br label %78

78:                                               ; preds = %71
  %79 = load i32, i32* %3, align 4
  %80 = add nsw i32 %79, 1
  store i32 %80, i32* %3, align 4
  br label %64

81:                                               ; preds = %64
  %82 = call i32 (i8*, ...) @printf(i8* getelementptr inbounds ([2 x i8], [2 x i8]* @.str.2, i64 0, i64 0))
  br label %83

83:                                               ; preds = %81
  br label %84

84:                                               ; preds = %83, %61
  %85 = load i32, i32* %2, align 4
  %86 = add nsw i32 %85, 1
  store i32 %86, i32* %2, align 4
  br label %17

87:                                               ; preds = %17
  br label %88

88:                                               ; preds = %87
  %89 = load i32, i32* %4, align 4
  %90 = add nsw i32 %89, 1
  store i32 %90, i32* %4, align 4
  br label %12

91:                                               ; preds = %12
  ret void
}

declare dso_local i32 @__isoc99_scanf(i8*, ...) #1

; Function Attrs: nounwind readonly
declare dso_local i64 @strlen(i8*) #2

declare dso_local i32 @printf(i8*, ...) #1


!llvm.module.flags = !{!0}
!llvm.ident = !{!1}

!0 = !{i32 1, !"wchar_size", i32 4}
!1 = !{!"clang version 10.0.0-4ubuntu1 "}
